target datalayout = "e-m:e-p270:32:32-p271:32:32-p272:64:64-i64:64-i128:128-f80:128-n8:16:32:64-S128"
target triple = "x86_64-pc-linux-gnu"

%struct.H5CX_node_t = type { %struct.H5CX_t, ptr }
%struct.H5CX_t = type { i64, ptr, i64, ptr, i64, ptr, i64, ptr, i64, ptr, i64, ptr, i64, i32, i64, i8, ptr, i8, ptr, i8, i32, i8, [3 x double], i8, i64, i8, i32, i8, %struct.H5Z_cb_t, i8, ptr, i8, %struct.H5T_vlen_alloc_info_t, i8, %struct.H5T_conv_cb_t, i8, i32, i8, i8, i8, i32, i8, i8, i32, i8, i8, i32, i8, i32, i8, i64, i8, i8, i8, i8, i8, ptr, i8, ptr, i8, i32, i8, i32, i8, %struct.H5VL_connector_prop_t, i8, ptr, i8 }
%struct.H5Z_cb_t = type { ptr, ptr }
%struct.H5T_vlen_alloc_info_t = type { ptr, ptr, ptr, ptr }
%struct.H5T_conv_cb_t = type { ptr, ptr }
%struct.H5VL_connector_prop_t = type { ptr, ptr }
%struct.H5ES_t = type { i64, ptr, ptr, ptr, ptr, %struct.H5ES_event_list_t, i8, %struct.H5ES_event_list_t }
%struct.H5ES_event_list_t = type { i64, ptr, ptr }

@H5_libinit_g = external global i8, align 1
@H5_libterm_g = external global i8, align 1
@.str = private unnamed_addr constant [98 x i8] c"generated/home/dtcxzyw/WorkSpace/Projects/compilers/llvm-opt-benchmark/bench/hdf5/hdf5/src/H5ES.c\00", align 1
@H5E_FUNC_g = external global i64, align 8
@H5E_CANTINIT_g = external global i64, align 8
@.str.1 = private unnamed_addr constant [30 x i8] c"library initialization failed\00", align 1
@H5ES_init_g = external global i8, align 1
@.str.2 = private unnamed_addr constant [32 x i8] c"interface initialization failed\00", align 1
@H5E_CANTSET_g = external global i64, align 8
@.str.3 = private unnamed_addr constant [22 x i8] c"can't set API context\00", align 1
@H5E_ARGS_g = external global i64, align 8
@H5E_BADTYPE_g = external global i64, align 8
@.str.6 = private unnamed_addr constant [29 x i8] c"invalid event set identifier\00", align 1
@H5E_BADVALUE_g = external global i64, align 8
@__func__.H5ESregister_insert_func = private unnamed_addr constant [25 x i8] c"H5ESregister_insert_func\00", align 1
@.str.22 = private unnamed_addr constant [31 x i8] c"NULL function callback pointer\00", align 1

; Function Attrs: nounwind uwtable
define i32 @H5ESregister_insert_func(i64 noundef %0, ptr noundef %1, ptr noundef %2) #0 {
  %4 = alloca i32, align 4
  %5 = alloca i64, align 8
  %6 = alloca ptr, align 8
  %7 = alloca ptr, align 8
  %8 = alloca i32, align 4
  %9 = alloca %struct.H5CX_node_t, align 8
  %10 = alloca i8, align 1
  %11 = alloca i8, align 1
  %12 = alloca ptr, align 8
  %13 = alloca i32, align 4
  store i64 %0, ptr %5, align 8, !tbaa !3
  store ptr %1, ptr %6, align 8, !tbaa !14
  store ptr %2, ptr %7, align 8, !tbaa !14
  call void @llvm.lifetime.start.p0(i64 4, ptr %8) #5
  store i32 0, ptr %8, align 4, !tbaa !17
  call void @llvm.lifetime.start.p0(i64 480, ptr %9) #5
  call void @llvm.memset.p0.i64(ptr align 8 %9, i8 0, i64 480, i1 false)
  call void @llvm.lifetime.start.p0(i64 1, ptr %10) #5
  store i8 0, ptr %10, align 1, !tbaa !7
  call void @llvm.lifetime.start.p0(i64 1, ptr %11) #5
  store i8 0, ptr %11, align 1, !tbaa !7
  br label %14

14:                                               ; preds = %3
  %15 = load i8, ptr @H5_libinit_g, align 1, !tbaa !7, !range !9, !noundef !10
  %16 = trunc i8 %15 to i1
  br i1 %16, label %21, label %17

17:                                               ; preds = %14
  %18 = load i8, ptr @H5_libterm_g, align 1, !tbaa !7, !range !9, !noundef !10
  %19 = trunc i8 %18 to i1
  %20 = xor i1 %19, true
  br label %21

21:                                               ; preds = %17, %14
  %22 = phi i1 [ false, %14 ], [ %20, %17 ]
  %23 = xor i1 %22, true
  %24 = xor i1 %23, true
  %25 = zext i1 %24 to i32
  %26 = sext i32 %25 to i64
  %27 = call i64 @llvm.expect.i64(i64 %26, i64 0)
  %28 = icmp ne i64 %27, 0
  br i1 %28, label %29, label %58

29:                                               ; preds = %21
  %30 = call i32 @H5_init_library()
  %31 = icmp slt i32 %30, 0
  %32 = xor i1 %31, true
  %33 = xor i1 %32, true
  %34 = zext i1 %33 to i32
  %35 = sext i32 %34 to i64
  %36 = call i64 @llvm.expect.i64(i64 %35, i64 0)
  %37 = icmp ne i64 %36, 0
  br i1 %37, label %38, label %57

38:                                               ; preds = %29
  br label %39

39:                                               ; preds = %38
  br label %40

40:                                               ; preds = %39
  br label %41

41:                                               ; preds = %40
  %42 = load i64, ptr @H5E_FUNC_g, align 8, !tbaa !3
  %43 = load i64, ptr @H5E_CANTINIT_g, align 8, !tbaa !3
  %44 = call i32 (ptr, ptr, i32, i64, i64, ptr, ...) @H5E_printf_stack(ptr noundef @.str, ptr noundef @__func__.H5ESregister_insert_func, i32 noundef 533, i64 noundef %42, i64 noundef %43, ptr noundef @.str.1)
  br label %45

45:                                               ; preds = %41
  br label %46

46:                                               ; preds = %45
  store i8 1, ptr %11, align 1, !tbaa !7
  %47 = load i8, ptr %11, align 1, !tbaa !7, !range !9, !noundef !10
  %48 = trunc i8 %47 to i1
  %49 = zext i1 %48 to i8
  store i8 %49, ptr %11, align 1, !tbaa !7
  br label %50

50:                                               ; preds = %46
  br label %51

51:                                               ; preds = %50
  br label %52

52:                                               ; preds = %51
  store i32 -1, ptr %8, align 4, !tbaa !17
  br label %190

53:                                               ; No predecessors!
  br label %54

54:                                               ; preds = %53
  br label %55

55:                                               ; preds = %54
  br label %56

56:                                               ; preds = %55
  br label %57

57:                                               ; preds = %56, %29
  br label %58

58:                                               ; preds = %57, %21
  %59 = load i8, ptr @H5ES_init_g, align 1, !tbaa !7, !range !9, !noundef !10
  %60 = trunc i8 %59 to i1
  br i1 %60, label %65, label %61

61:                                               ; preds = %58
  %62 = load i8, ptr @H5_libterm_g, align 1, !tbaa !7, !range !9, !noundef !10
  %63 = trunc i8 %62 to i1
  %64 = xor i1 %63, true
  br label %65

65:                                               ; preds = %61, %58
  %66 = phi i1 [ false, %58 ], [ %64, %61 ]
  %67 = xor i1 %66, true
  %68 = xor i1 %67, true
  %69 = zext i1 %68 to i32
  %70 = sext i32 %69 to i64
  %71 = call i64 @llvm.expect.i64(i64 %70, i64 0)
  %72 = icmp ne i64 %71, 0
  br i1 %72, label %73, label %96

73:                                               ; preds = %65
  store i8 1, ptr @H5ES_init_g, align 1, !tbaa !7
  %74 = call i32 @H5ES__init_package()
  %75 = icmp slt i32 %74, 0
  br i1 %75, label %76, label %95

76:                                               ; preds = %73
  store i8 0, ptr @H5ES_init_g, align 1, !tbaa !7
  br label %77

77:                                               ; preds = %76
  br label %78

78:                                               ; preds = %77
  br label %79

79:                                               ; preds = %78
  %80 = load i64, ptr @H5E_FUNC_g, align 8, !tbaa !3
  %81 = load i64, ptr @H5E_CANTINIT_g, align 8, !tbaa !3
  %82 = call i32 (ptr, ptr, i32, i64, i64, ptr, ...) @H5E_printf_stack(ptr noundef @.str, ptr noundef @__func__.H5ESregister_insert_func, i32 noundef 533, i64 noundef %80, i64 noundef %81, ptr noundef @.str.2)
  br label %83

83:                                               ; preds = %79
  br label %84

84:                                               ; preds = %83
  store i8 1, ptr %11, align 1, !tbaa !7
  %85 = load i8, ptr %11, align 1, !tbaa !7, !range !9, !noundef !10
  %86 = trunc i8 %85 to i1
  %87 = zext i1 %86 to i8
  store i8 %87, ptr %11, align 1, !tbaa !7
  br label %88

88:                                               ; preds = %84
  br label %89

89:                                               ; preds = %88
  br label %90

90:                                               ; preds = %89
  store i32 -1, ptr %8, align 4, !tbaa !17
  br label %190

91:                                               ; No predecessors!
  br label %92

92:                                               ; preds = %91
  br label %93

93:                                               ; preds = %92
  br label %94

94:                                               ; preds = %93
  br label %95

95:                                               ; preds = %94, %73
  br label %96

96:                                               ; preds = %95, %65
  br label %97

97:                                               ; preds = %96
  br label %98

98:                                               ; preds = %97
  br label %99

99:                                               ; preds = %98
  %100 = call i32 @H5CX_push(ptr noundef %9)
  %101 = icmp slt i32 %100, 0
  %102 = xor i1 %101, true
  %103 = xor i1 %102, true
  %104 = zext i1 %103 to i32
  %105 = sext i32 %104 to i64
  %106 = call i64 @llvm.expect.i64(i64 %105, i64 0)
  %107 = icmp ne i64 %106, 0
  br i1 %107, label %108, label %127

108:                                              ; preds = %99
  br label %109

109:                                              ; preds = %108
  br label %110

110:                                              ; preds = %109
  br label %111

111:                                              ; preds = %110
  %112 = load i64, ptr @H5E_FUNC_g, align 8, !tbaa !3
  %113 = load i64, ptr @H5E_CANTSET_g, align 8, !tbaa !3
  %114 = call i32 (ptr, ptr, i32, i64, i64, ptr, ...) @H5E_printf_stack(ptr noundef @.str, ptr noundef @__func__.H5ESregister_insert_func, i32 noundef 533, i64 noundef %112, i64 noundef %113, ptr noundef @.str.3)
  br label %115

115:                                              ; preds = %111
  br label %116

116:                                              ; preds = %115
  store i8 1, ptr %11, align 1, !tbaa !7
  %117 = load i8, ptr %11, align 1, !tbaa !7, !range !9, !noundef !10
  %118 = trunc i8 %117 to i1
  %119 = zext i1 %118 to i8
  store i8 %119, ptr %11, align 1, !tbaa !7
  br label %120

120:                                              ; preds = %116
  br label %121

121:                                              ; preds = %120
  br label %122

122:                                              ; preds = %121
  store i32 -1, ptr %8, align 4, !tbaa !17
  br label %190

123:                                              ; No predecessors!
  br label %124

124:                                              ; preds = %123
  br label %125

125:                                              ; preds = %124
  br label %126

126:                                              ; preds = %125
  br label %128

127:                                              ; preds = %99
  store i8 1, ptr %10, align 1, !tbaa !7
  br label %128

128:                                              ; preds = %127, %126
  br label %129

129:                                              ; preds = %128
  br label %130

130:                                              ; preds = %129
  %131 = call i32 @H5E_clear_stack()
  %132 = load i64, ptr %5, align 8, !tbaa !3
  %133 = icmp ne i64 0, %132
  br i1 %133, label %134, label %189

134:                                              ; preds = %130
  call void @llvm.lifetime.start.p0(i64 8, ptr %12) #5
  %135 = load i64, ptr %5, align 8, !tbaa !3
  %136 = call ptr @H5I_object_verify(i64 noundef %135, i32 noundef 16)
  store ptr %136, ptr %12, align 8, !tbaa !11
  %137 = icmp eq ptr null, %136
  br i1 %137, label %138, label %157

138:                                              ; preds = %134
  br label %139

139:                                              ; preds = %138
  br label %140

140:                                              ; preds = %139
  br label %141

141:                                              ; preds = %140
  %142 = load i64, ptr @H5E_ARGS_g, align 8, !tbaa !3
  %143 = load i64, ptr @H5E_BADTYPE_g, align 8, !tbaa !3
  %144 = call i32 (ptr, ptr, i32, i64, i64, ptr, ...) @H5E_printf_stack(ptr noundef @.str, ptr noundef @__func__.H5ESregister_insert_func, i32 noundef 541, i64 noundef %142, i64 noundef %143, ptr noundef @.str.6)
  br label %145

145:                                              ; preds = %141
  br label %146

146:                                              ; preds = %145
  store i8 1, ptr %11, align 1, !tbaa !7
  %147 = load i8, ptr %11, align 1, !tbaa !7, !range !9, !noundef !10
  %148 = trunc i8 %147 to i1
  %149 = zext i1 %148 to i8
  store i8 %149, ptr %11, align 1, !tbaa !7
  br label %150

150:                                              ; preds = %146
  br label %151

151:                                              ; preds = %150
  br label %152

152:                                              ; preds = %151
  store i32 -1, ptr %8, align 4, !tbaa !17
  store i32 12, ptr %13, align 4
  br label %186

153:                                              ; No predecessors!
  br label %154

154:                                              ; preds = %153
  br label %155

155:                                              ; preds = %154
  br label %156

156:                                              ; preds = %155
  br label %157

157:                                              ; preds = %156, %134
  %158 = load ptr, ptr %6, align 8, !tbaa !14
  %159 = icmp eq ptr null, %158
  br i1 %159, label %160, label %179

160:                                              ; preds = %157
  br label %161

161:                                              ; preds = %160
  br label %162

162:                                              ; preds = %161
  br label %163

163:                                              ; preds = %162
  %164 = load i64, ptr @H5E_ARGS_g, align 8, !tbaa !3
  %165 = load i64, ptr @H5E_BADVALUE_g, align 8, !tbaa !3
  %166 = call i32 (ptr, ptr, i32, i64, i64, ptr, ...) @H5E_printf_stack(ptr noundef @.str, ptr noundef @__func__.H5ESregister_insert_func, i32 noundef 543, i64 noundef %164, i64 noundef %165, ptr noundef @.str.22)
  br label %167

167:                                              ; preds = %163
  br label %168

168:                                              ; preds = %167
  store i8 1, ptr %11, align 1, !tbaa !7
  %169 = load i8, ptr %11, align 1, !tbaa !7, !range !9, !noundef !10
  %170 = trunc i8 %169 to i1
  %171 = zext i1 %170 to i8
  store i8 %171, ptr %11, align 1, !tbaa !7
  br label %172

172:                                              ; preds = %168
  br label %173

173:                                              ; preds = %172
  br label %174

174:                                              ; preds = %173
  store i32 -1, ptr %8, align 4, !tbaa !17
  store i32 12, ptr %13, align 4
  br label %186

175:                                              ; No predecessors!
  br label %176

176:                                              ; preds = %175
  br label %177

177:                                              ; preds = %176
  br label %178

178:                                              ; preds = %177
  br label %179

179:                                              ; preds = %178, %157
  %180 = load ptr, ptr %6, align 8, !tbaa !14
  %181 = load ptr, ptr %12, align 8, !tbaa !11
  %182 = getelementptr inbounds nuw %struct.H5ES_t, ptr %181, i32 0, i32 1
  store ptr %180, ptr %182, align 8, !tbaa !39
  %183 = load ptr, ptr %7, align 8, !tbaa !14
  %184 = load ptr, ptr %12, align 8, !tbaa !11
  %185 = getelementptr inbounds nuw %struct.H5ES_t, ptr %184, i32 0, i32 2
  store ptr %183, ptr %185, align 8, !tbaa !40
  store i32 0, ptr %13, align 4
  br label %186

186:                                              ; preds = %174, %152, %179
  call void @llvm.lifetime.end.p0(i64 8, ptr %12) #5
  %187 = load i32, ptr %13, align 4
  switch i32 %187, label %214 [
    i32 0, label %188
    i32 12, label %190
  ]

188:                                              ; preds = %186
  br label %189

189:                                              ; preds = %188, %130
  br label %190

190:                                              ; preds = %189, %186, %122, %90, %52
  %191 = load i8, ptr %10, align 1, !tbaa !7, !range !9, !noundef !10
  %192 = trunc i8 %191 to i1
  %193 = xor i1 %192, true
  %194 = xor i1 %193, true
  %195 = zext i1 %194 to i32
  %196 = sext i32 %195 to i64
  %197 = call i64 @llvm.expect.i64(i64 %196, i64 1)
  %198 = icmp ne i64 %197, 0
  br i1 %198, label %199, label %201

199:                                              ; preds = %190
  %200 = call i32 @H5CX_pop(i1 noundef zeroext true)
  store i8 0, ptr %10, align 1, !tbaa !7
  br label %201

201:                                              ; preds = %199, %190
  %202 = load i8, ptr %11, align 1, !tbaa !7, !range !9, !noundef !10
  %203 = trunc i8 %202 to i1
  %204 = xor i1 %203, true
  %205 = xor i1 %204, true
  %206 = zext i1 %205 to i32
  %207 = sext i32 %206 to i64
  %208 = call i64 @llvm.expect.i64(i64 %207, i64 0)
  %209 = icmp ne i64 %208, 0
  br i1 %209, label %210, label %212

210:                                              ; preds = %201
  %211 = call i32 @H5E_dump_api_stack()
  br label %212

212:                                              ; preds = %210, %201
  %213 = load i32, ptr %8, align 4, !tbaa !17
  store i32 %213, ptr %4, align 4
  store i32 1, ptr %13, align 4
  br label %214

214:                                              ; preds = %212, %186
  call void @llvm.lifetime.end.p0(i64 1, ptr %11) #5
  call void @llvm.lifetime.end.p0(i64 1, ptr %10) #5
  call void @llvm.lifetime.end.p0(i64 480, ptr %9) #5
  call void @llvm.lifetime.end.p0(i64 4, ptr %8) #5
  %215 = load i32, ptr %4, align 4
  ret i32 %215
}